; Function Attrs: mustprogress null_pointer_is_valid sspstrong uwtable
define void @_ZN19WiresharkMainWindow18checkDisplayFilterEv(ptr noundef readonly align 8 captures(none) dereferenceable_or_null(560) %0) local_unnamed_addr #0 align 2 {
  %2 = getelementptr inbounds nuw i8, ptr %0, i64 304
  %3 = load ptr, ptr %2, align 8
  %4 = tail call noundef zeroext i1 @_ZN18DisplayFilterCombo18checkDisplayFilterEv(ptr noundef align 8 dereferenceable_or_null(40) %3)
  br i1 %4, label %11, label %5

5:                                                ; preds = %1
  %6 = tail call noundef ptr @_ZN11CaptureFile13globalCapFileEv()
  %7 = getelementptr inbounds nuw i8, ptr %6, i64 152
  %8 = load ptr, ptr %7, align 8
  tail call void @g_free(ptr noundef %8)
  %9 = tail call noundef ptr @_ZN11CaptureFile13globalCapFileEv()
  %10 = getelementptr inbounds nuw i8, ptr %9, i64 152
  store ptr null, ptr %10, align 8
  br label %11

11:                                               ; preds = %5, %1
  ret void
}